; Function Attrs: mustprogress uwtable
define internal noundef ptr @"_ZZN4pkpy12add_module_cEPNS_2VMEEN4$_748__invokeES1_PNS_8PyObjectES4_"(ptr noundef %0, ptr nocapture noundef readonly %1, ptr noundef %2) #3 align 2 {
  %4 = alloca i64, align 8
  %5 = getelementptr inbounds i8, ptr %1, i64 24
  %6 = tail call noundef i64 @_ZN4pkpy18_py_cast__internalIlLb1EEET_PNS_2VMEPNS_8PyObjectE(ptr noundef %0, ptr noundef %2)
  %7 = load ptr, ptr %5, align 8
  %8 = getelementptr inbounds i64, ptr %7, i64 %6
  call void @llvm.lifetime.start.p0(i64 8, ptr nonnull %4)
  %9 = load i64, ptr %8, align 8
  store i64 %9, ptr %4, align 8
  %or.cond.i.i = icmp ult i64 %9, 1152921504606846976
  br i1 %or.cond.i.i, label %10, label %14

10:                                               ; preds = %3
  %11 = shl nuw nsw i64 %9, 2
  %12 = or disjoint i64 %11, 2
  %13 = inttoptr i64 %12 to ptr
  br label %"_ZZN4pkpy12add_module_cEPNS_2VMEENK4$_74clES1_PNS_8PyObjectES4_.exit"

14:                                               ; preds = %3
  %15 = getelementptr inbounds i8, ptr %0, i64 16
  %16 = call noundef ptr @_ZN4pkpy11ManagedHeap5gcnewIlJRlEEEPNS_8PyObjectENS_4TypeEDpOT0_(ptr noundef nonnull align 8 dereferenceable(84) %15, i16 2, ptr noundef nonnull align 8 dereferenceable(8) %4)
  br label %"_ZZN4pkpy12add_module_cEPNS_2VMEENK4$_74clES1_PNS_8PyObjectES4_.exit"

"_ZZN4pkpy12add_module_cEPNS_2VMEENK4$_74clES1_PNS_8PyObjectES4_.exit": ; preds = %10, %14
  %.0.i.i = phi ptr [ %13, %10 ], [ %16, %14 ]
  call void @llvm.lifetime.end.p0(i64 8, ptr nonnull %4)
  ret ptr %.0.i.i
}